target datalayout = "e-m:e-p270:32:32-p271:32:32-p272:64:64-i64:64-i128:128-f80:128-n8:16:32:64-S128"
target triple = "x86_64-unknown-linux-gnu"

%"class.google::protobuf::Message" = type { %"class.google::protobuf::MessageLite" }
%"class.google::protobuf::MessageLite" = type { ptr, %"class.google::protobuf::internal::InternalMetadata" }
%"class.google::protobuf::internal::InternalMetadata" = type { ptr }
%"class.google::protobuf::internal::CachedSize" = type { %"struct.std::atomic" }
%"struct.std::atomic" = type { %"struct.std::__atomic_base" }
%"struct.std::__atomic_base" = type { i32 }
%"class.mygame::rect32" = type <{ %"class.google::protobuf::Message", i32, i32, i32, i32, %"class.google::protobuf::internal::CachedSize", [4 x i8] }>

; Function Attrs: mustprogress nounwind uwtable
define linkonce_odr dso_local noundef i32 @_ZN6google8protobuf4Bits16Log2FloorNonZeroEj(i32 noundef %n) #5 comdat align 2 {
entry:
  %n.addr = alloca i32, align 4
  store i32 %n, ptr %n.addr, align 4
  %0 = load i32, ptr %n.addr, align 4
  %1 = call i32 @llvm.ctlz.i32(i32 %0, i1 true)
  %xor = xor i32 31, %1
  ret i32 %xor
}

; Function Attrs: noreturn nounwind uwtable
define linkonce_odr hidden void @__clang_call_terminate(ptr noundef %0) #7 comdat {
  %2 = call ptr @__cxa_begin_catch(ptr %0) #3
  call void @_ZSt9terminatev() #14
  unreachable
}

; Function Attrs: mustprogress nounwind uwtable
define linkonce_odr dso_local noundef i32 @_ZStanSt12memory_orderSt23__memory_order_modifier(i32 noundef %__m, i32 noundef %__mod) #5 comdat {
entry:
  %__m.addr = alloca i32, align 4
  %__mod.addr = alloca i32, align 4
  store i32 %__m, ptr %__m.addr, align 4
  store i32 %__mod, ptr %__mod.addr, align 4
  %0 = load i32, ptr %__m.addr, align 4
  %1 = load i32, ptr %__mod.addr, align 4
  %and = and i32 %0, %1
  ret i32 %and
}

; Function Attrs: mustprogress uwtable
define linkonce_odr dso_local noundef i64 @_ZN6google8protobuf2io17CodedOutputStream12VarintSize32Ej(i32 noundef %value) #4 comdat align 2 {
entry:
  %value.addr = alloca i32, align 4
  %log2value = alloca i32, align 4
  store i32 %value, ptr %value.addr, align 4
  %0 = load i32, ptr %value.addr, align 4
  %or = or i32 %0, 1
  %call = call noundef i32 @_ZN6google8protobuf4Bits16Log2FloorNonZeroEj(i32 noundef %or)
  store i32 %call, ptr %log2value, align 4
  %1 = load i32, ptr %log2value, align 4
  %mul = mul i32 %1, 9
  %add = add i32 %mul, 73
  %div = udiv i32 %add, 64
  %conv = zext i32 %div to i64
  ret i64 %conv
}

; Function Attrs: mustprogress nounwind uwtable
define linkonce_odr dso_local void @_ZN6google8protobuf8internal10CachedSize3SetEi(ptr noundef nonnull align 4 dereferenceable(4) %this, i32 noundef %size) #5 comdat align 2 personality ptr @__gxx_personality_v0 {
entry:
  %this.addr.i = alloca ptr, align 8
  %__i.addr.i = alloca i32, align 4
  %__m.addr.i = alloca i32, align 4
  %__b.i = alloca i32, align 4
  %.atomictmp.i = alloca i32, align 4
  %this.addr = alloca ptr, align 8
  %size.addr = alloca i32, align 4
  store ptr %this, ptr %this.addr, align 8
  store i32 %size, ptr %size.addr, align 4
  %this1 = load ptr, ptr %this.addr, align 8
  %size_ = getelementptr inbounds %"class.google::protobuf::internal::CachedSize", ptr %this1, i32 0, i32 0
  %0 = load i32, ptr %size.addr, align 4
  store ptr %size_, ptr %this.addr.i, align 8
  store i32 %0, ptr %__i.addr.i, align 4
  store i32 0, ptr %__m.addr.i, align 4
  %this1.i = load ptr, ptr %this.addr.i, align 8
  %1 = load i32, ptr %__m.addr.i, align 4
  %call.i = invoke noundef i32 @_ZStanSt12memory_orderSt23__memory_order_modifier(i32 noundef %1, i32 noundef 65535)
          to label %invoke.cont.i unwind label %terminate.lpad.i

invoke.cont.i:                                    ; preds = %entry
  store i32 %call.i, ptr %__b.i, align 4
  %2 = load i32, ptr %__m.addr.i, align 4
  %3 = load i32, ptr %__i.addr.i, align 4
  store i32 %3, ptr %.atomictmp.i, align 4
  switch i32 %2, label %monotonic.i [
    i32 3, label %release.i
    i32 5, label %seqcst.i
  ]

monotonic.i:                                      ; preds = %invoke.cont.i
  %4 = load i32, ptr %.atomictmp.i, align 4
  store atomic i32 %4, ptr %this1.i monotonic, align 4
  br label %_ZNSt13__atomic_baseIiE5storeEiSt12memory_order.exit

release.i:                                        ; preds = %invoke.cont.i
  %5 = load i32, ptr %.atomictmp.i, align 4
  store atomic i32 %5, ptr %this1.i release, align 4
  br label %_ZNSt13__atomic_baseIiE5storeEiSt12memory_order.exit

seqcst.i:                                         ; preds = %invoke.cont.i
  %6 = load i32, ptr %.atomictmp.i, align 4
  store atomic i32 %6, ptr %this1.i seq_cst, align 4
  br label %_ZNSt13__atomic_baseIiE5storeEiSt12memory_order.exit

terminate.lpad.i:                                 ; preds = %entry
  %7 = landingpad { ptr, i32 }
          catch ptr null
  %8 = extractvalue { ptr, i32 } %7, 0
  call void @__clang_call_terminate(ptr %8) #14
  unreachable

_ZNSt13__atomic_baseIiE5storeEiSt12memory_order.exit: ; preds = %seqcst.i, %release.i, %monotonic.i
  ret void
}

; Function Attrs: mustprogress uwtable
define linkonce_odr dso_local noundef i64 @_ZN6google8protobuf2io17CodedOutputStream24VarintSize32SignExtendedEi(i32 noundef %value) #4 comdat align 2 {
entry:
  %retval = alloca i64, align 8
  %value.addr = alloca i32, align 4
  store i32 %value, ptr %value.addr, align 4
  %0 = load i32, ptr %value.addr, align 4
  %cmp = icmp slt i32 %0, 0
  br i1 %cmp, label %if.then, label %if.else

if.then:                                          ; preds = %entry
  store i64 10, ptr %retval, align 8
  br label %return

if.else:                                          ; preds = %entry
  %1 = load i32, ptr %value.addr, align 4
  %call = call noundef i64 @_ZN6google8protobuf2io17CodedOutputStream12VarintSize32Ej(i32 noundef %1)
  store i64 %call, ptr %retval, align 8
  br label %return

return:                                           ; preds = %if.else, %if.then
  %2 = load i64, ptr %retval, align 8
  ret i64 %2
}

; Function Attrs: mustprogress uwtable
define dso_local void @_ZNK6mygame6rect3213SetCachedSizeEi(ptr noundef nonnull align 8 dereferenceable(40) %this, i32 noundef %size) unnamed_addr #4 align 2 {
entry:
  %this.addr = alloca ptr, align 8
  %size.addr = alloca i32, align 4
  store ptr %this, ptr %this.addr, align 8
  store i32 %size, ptr %size.addr, align 4
  %this1 = load ptr, ptr %this.addr, align 8
  %_cached_size_ = getelementptr inbounds %"class.mygame::rect32", ptr %this1, i32 0, i32 5
  %0 = load i32, ptr %size.addr, align 4
  call void @_ZN6google8protobuf8internal10CachedSize3SetEi(ptr noundef nonnull align 4 dereferenceable(4) %_cached_size_, i32 noundef %0)
  ret void
}

; Function Attrs: mustprogress nounwind uwtable
define linkonce_odr dso_local noundef i32 @_ZN6google8protobuf8internal12ToCachedSizeEm(i64 noundef %size) #5 comdat {
entry:
  %size.addr = alloca i64, align 8
  store i64 %size, ptr %size.addr, align 8
  %0 = load i64, ptr %size.addr, align 8
  %conv = trunc i64 %0 to i32
  ret i32 %conv
}

; Function Attrs: mustprogress nounwind uwtable
define linkonce_odr dso_local noundef i32 @_ZNK6mygame6rect3216_internal_heightEv(ptr noundef nonnull align 8 dereferenceable(40) %this) #5 comdat align 2 {
entry:
  %this.addr = alloca ptr, align 8
  store ptr %this, ptr %this.addr, align 8
  %this1 = load ptr, ptr %this.addr, align 8
  %height_ = getelementptr inbounds %"class.mygame::rect32", ptr %this1, i32 0, i32 4
  %0 = load i32, ptr %height_, align 4
  ret i32 %0
}

; Function Attrs: mustprogress uwtable
define linkonce_odr dso_local noundef i32 @_ZNK6mygame6rect326heightEv(ptr noundef nonnull align 8 dereferenceable(40) %this) #4 comdat align 2 {
entry:
  %this.addr = alloca ptr, align 8
  store ptr %this, ptr %this.addr, align 8
  %this1 = load ptr, ptr %this.addr, align 8
  %call = call noundef i32 @_ZNK6mygame6rect3216_internal_heightEv(ptr noundef nonnull align 8 dereferenceable(40) %this1)
  ret i32 %call
}

; Function Attrs: mustprogress nounwind uwtable
define linkonce_odr dso_local noundef i32 @_ZNK6mygame6rect3215_internal_widthEv(ptr noundef nonnull align 8 dereferenceable(40) %this) #5 comdat align 2 {
entry:
  %this.addr = alloca ptr, align 8
  store ptr %this, ptr %this.addr, align 8
  %this1 = load ptr, ptr %this.addr, align 8
  %width_ = getelementptr inbounds %"class.mygame::rect32", ptr %this1, i32 0, i32 3
  %0 = load i32, ptr %width_, align 8
  ret i32 %0
}

; Function Attrs: mustprogress uwtable
define linkonce_odr dso_local noundef i32 @_ZNK6mygame6rect325widthEv(ptr noundef nonnull align 8 dereferenceable(40) %this) #4 comdat align 2 {
entry:
  %this.addr = alloca ptr, align 8
  store ptr %this, ptr %this.addr, align 8
  %this1 = load ptr, ptr %this.addr, align 8
  %call = call noundef i32 @_ZNK6mygame6rect3215_internal_widthEv(ptr noundef nonnull align 8 dereferenceable(40) %this1)
  ret i32 %call
}

; Function Attrs: mustprogress nounwind uwtable
define linkonce_odr dso_local noundef i32 @_ZNK6mygame6rect3211_internal_yEv(ptr noundef nonnull align 8 dereferenceable(40) %this) #5 comdat align 2 {
entry:
  %this.addr = alloca ptr, align 8
  store ptr %this, ptr %this.addr, align 8
  %this1 = load ptr, ptr %this.addr, align 8
  %y_ = getelementptr inbounds %"class.mygame::rect32", ptr %this1, i32 0, i32 2
  %0 = load i32, ptr %y_, align 4
  ret i32 %0
}

; Function Attrs: mustprogress uwtable
define linkonce_odr dso_local noundef i32 @_ZNK6mygame6rect321yEv(ptr noundef nonnull align 8 dereferenceable(40) %this) #4 comdat align 2 {
entry:
  %this.addr = alloca ptr, align 8
  store ptr %this, ptr %this.addr, align 8
  %this1 = load ptr, ptr %this.addr, align 8
  %call = call noundef i32 @_ZNK6mygame6rect3211_internal_yEv(ptr noundef nonnull align 8 dereferenceable(40) %this1)
  ret i32 %call
}

; Function Attrs: mustprogress uwtable
define linkonce_odr dso_local noundef i64 @_ZN6google8protobuf8internal14WireFormatLite9Int32SizeEi(i32 noundef %value) #4 comdat align 2 {
entry:
  %value.addr = alloca i32, align 4
  store i32 %value, ptr %value.addr, align 4
  %0 = load i32, ptr %value.addr, align 4
  %call = call noundef i64 @_ZN6google8protobuf2io17CodedOutputStream24VarintSize32SignExtendedEi(i32 noundef %0)
  ret i64 %call
}

; Function Attrs: mustprogress nounwind uwtable
define linkonce_odr dso_local noundef i32 @_ZNK6mygame6rect3211_internal_xEv(ptr noundef nonnull align 8 dereferenceable(40) %this) #5 comdat align 2 {
entry:
  %this.addr = alloca ptr, align 8
  store ptr %this, ptr %this.addr, align 8
  %this1 = load ptr, ptr %this.addr, align 8
  %x_ = getelementptr inbounds %"class.mygame::rect32", ptr %this1, i32 0, i32 1
  %0 = load i32, ptr %x_, align 8
  ret i32 %0
}

; Function Attrs: mustprogress uwtable
define linkonce_odr dso_local noundef i32 @_ZNK6mygame6rect321xEv(ptr noundef nonnull align 8 dereferenceable(40) %this) #4 comdat align 2 {
entry:
  %this.addr = alloca ptr, align 8
  store ptr %this, ptr %this.addr, align 8
  %this1 = load ptr, ptr %this.addr, align 8
  %call = call noundef i32 @_ZNK6mygame6rect3211_internal_xEv(ptr noundef nonnull align 8 dereferenceable(40) %this1)
  ret i32 %call
}

; Function Attrs: mustprogress uwtable
define dso_local noundef i64 @_ZNK6mygame6rect3212ByteSizeLongEv(ptr noundef nonnull align 8 dereferenceable(40) %this) unnamed_addr #4 align 2 {
entry:
  %this.addr.i35 = alloca ptr, align 8
  %this.addr.i = alloca ptr, align 8
  %retval = alloca i64, align 8
  %this.addr = alloca ptr, align 8
  %total_size = alloca i64, align 8
  %cached_has_bits = alloca i32, align 4
  %cached_size = alloca i32, align 4
  store ptr %this, ptr %this.addr, align 8
  %this1 = load ptr, ptr %this.addr, align 8
  store i64 0, ptr %total_size, align 8
  store i32 0, ptr %cached_has_bits, align 4
  %call = call noundef i32 @_ZNK6mygame6rect321xEv(ptr noundef nonnull align 8 dereferenceable(40) %this1)
  %cmp = icmp ne i32 %call, 0
  br i1 %cmp, label %if.then, label %if.end

if.then:                                          ; preds = %entry
  %call2 = call noundef i32 @_ZNK6mygame6rect3211_internal_xEv(ptr noundef nonnull align 8 dereferenceable(40) %this1)
  %call3 = call noundef i64 @_ZN6google8protobuf8internal14WireFormatLite9Int32SizeEi(i32 noundef %call2)
  %add = add i64 1, %call3
  %0 = load i64, ptr %total_size, align 8
  %add4 = add i64 %0, %add
  store i64 %add4, ptr %total_size, align 8
  br label %if.end

if.end:                                           ; preds = %if.then, %entry
  %call5 = call noundef i32 @_ZNK6mygame6rect321yEv(ptr noundef nonnull align 8 dereferenceable(40) %this1)
  %cmp6 = icmp ne i32 %call5, 0
  br i1 %cmp6, label %if.then7, label %if.end12

if.then7:                                         ; preds = %if.end
  %call8 = call noundef i32 @_ZNK6mygame6rect3211_internal_yEv(ptr noundef nonnull align 8 dereferenceable(40) %this1)
  %call9 = call noundef i64 @_ZN6google8protobuf8internal14WireFormatLite9Int32SizeEi(i32 noundef %call8)
  %add10 = add i64 1, %call9
  %1 = load i64, ptr %total_size, align 8
  %add11 = add i64 %1, %add10
  store i64 %add11, ptr %total_size, align 8
  br label %if.end12

if.end12:                                         ; preds = %if.then7, %if.end
  %call13 = call noundef i32 @_ZNK6mygame6rect325widthEv(ptr noundef nonnull align 8 dereferenceable(40) %this1)
  %cmp14 = icmp ne i32 %call13, 0
  br i1 %cmp14, label %if.then15, label %if.end20

if.then15:                                        ; preds = %if.end12
  %call16 = call noundef i32 @_ZNK6mygame6rect3215_internal_widthEv(ptr noundef nonnull align 8 dereferenceable(40) %this1)
  %call17 = call noundef i64 @_ZN6google8protobuf8internal14WireFormatLite9Int32SizeEi(i32 noundef %call16)
  %add18 = add i64 1, %call17
  %2 = load i64, ptr %total_size, align 8
  %add19 = add i64 %2, %add18
  store i64 %add19, ptr %total_size, align 8
  br label %if.end20

if.end20:                                         ; preds = %if.then15, %if.end12
  %call21 = call noundef i32 @_ZNK6mygame6rect326heightEv(ptr noundef nonnull align 8 dereferenceable(40) %this1)
  %cmp22 = icmp ne i32 %call21, 0
  br i1 %cmp22, label %if.then23, label %if.end28

if.then23:                                        ; preds = %if.end20
  %call24 = call noundef i32 @_ZNK6mygame6rect3216_internal_heightEv(ptr noundef nonnull align 8 dereferenceable(40) %this1)
  %call25 = call noundef i64 @_ZN6google8protobuf8internal14WireFormatLite9Int32SizeEi(i32 noundef %call24)
  %add26 = add i64 1, %call25
  %3 = load i64, ptr %total_size, align 8
  %add27 = add i64 %3, %add26
  store i64 %add27, ptr %total_size, align 8
  br label %if.end28

if.end28:                                         ; preds = %if.then23, %if.end20
  %_internal_metadata_ = getelementptr inbounds %"class.google::protobuf::MessageLite", ptr %this1, i32 0, i32 1
  store ptr %_internal_metadata_, ptr %this.addr.i, align 8
  %this1.i = load ptr, ptr %this.addr.i, align 8
  store ptr %this1.i, ptr %this.addr.i35, align 8
  %this1.i36 = load ptr, ptr %this.addr.i35, align 8
  %4 = load ptr, ptr %this1.i36, align 8
  %5 = ptrtoint ptr %4 to i64
  %and.i = and i64 %5, 1
  %conv.i = trunc i64 %and.i to i32
  %cmp.i = icmp eq i32 %conv.i, 1
  br i1 %cmp.i, label %if.then30, label %if.end33

if.then30:                                        ; preds = %if.end28
  %_internal_metadata_31 = getelementptr inbounds %"class.google::protobuf::MessageLite", ptr %this1, i32 0, i32 1
  %6 = load i64, ptr %total_size, align 8
  %_cached_size_ = getelementptr inbounds %"class.mygame::rect32", ptr %this1, i32 0, i32 5
  %call32 = call noundef i64 @_ZN6google8protobuf8internal24ComputeUnknownFieldsSizeERKNS1_16InternalMetadataEmPNS1_10CachedSizeE(ptr noundef nonnull align 8 dereferenceable(8) %_internal_metadata_31, i64 noundef %6, ptr noundef %_cached_size_)
  store i64 %call32, ptr %retval, align 8
  br label %return

if.end33:                                         ; preds = %if.end28
  %7 = load i64, ptr %total_size, align 8
  %call34 = call noundef i32 @_ZN6google8protobuf8internal12ToCachedSizeEm(i64 noundef %7)
  store i32 %call34, ptr %cached_size, align 4
  %8 = load i32, ptr %cached_size, align 4
  call void @_ZNK6mygame6rect3213SetCachedSizeEi(ptr noundef nonnull align 8 dereferenceable(40) %this1, i32 noundef %8)
  %9 = load i64, ptr %total_size, align 8
  store i64 %9, ptr %retval, align 8
  br label %return

return:                                           ; preds = %if.end33, %if.then30
  %10 = load i64, ptr %retval, align 8
  ret i64 %10
}