; Function Attrs: mustprogress uwtable
define dso_local noundef i64 @_ZNK6mygame6rect3212ByteSizeLongEv(ptr noundef nonnull align 8 dereferenceable(40) %this) unnamed_addr #3 align 2 personality ptr @__gxx_personality_v0 {
entry:
  %x_.i.i = getelementptr inbounds i8, ptr %this, i64 16
  %0 = load i32, ptr %x_.i.i, align 8
  %cmp.not = icmp eq i32 %0, 0
  br i1 %cmp.not, label %if.end, label %if.then

if.then:                                          ; preds = %entry
  %cmp.i.i = icmp slt i32 %0, 0
  br i1 %cmp.i.i, label %if.end, label %if.else.i.i

if.else.i.i:                                      ; preds = %if.then
  %or.i.i.i = or i32 %0, 1
  %1 = tail call i32 @llvm.ctlz.i32(i32 %or.i.i.i, i1 true), !range !9
  %xor.i.i.i.i = xor i32 %1, 31
  %mul.i.i.i = mul nuw nsw i32 %xor.i.i.i.i, 9
  %add.i.i.i = add nuw nsw i32 %mul.i.i.i, 73
  %div1.i.i.i = lshr i32 %add.i.i.i, 6
  %narrow = add nuw nsw i32 %div1.i.i.i, 1
  %2 = zext nneg i32 %narrow to i64
  br label %if.end

if.end:                                           ; preds = %if.else.i.i, %if.then, %entry
  %total_size.0 = phi i64 [ 0, %entry ], [ %2, %if.else.i.i ], [ 11, %if.then ]
  %y_.i.i = getelementptr inbounds i8, ptr %this, i64 20
  %3 = load i32, ptr %y_.i.i, align 4
  %cmp6.not = icmp eq i32 %3, 0
  br i1 %cmp6.not, label %if.end12, label %if.then7

if.then7:                                         ; preds = %if.end
  %cmp.i.i8 = icmp slt i32 %3, 0
  br i1 %cmp.i.i8, label %_ZN6google8protobuf8internal14WireFormatLite9Int32SizeEi.exit17, label %if.else.i.i9

if.else.i.i9:                                     ; preds = %if.then7
  %or.i.i.i10 = or i32 %3, 1
  %4 = tail call i32 @llvm.ctlz.i32(i32 %or.i.i.i10, i1 true), !range !9
  %xor.i.i.i.i11 = xor i32 %4, 31
  %mul.i.i.i12 = mul nuw nsw i32 %xor.i.i.i.i11, 9
  %add.i.i.i13 = add nuw nsw i32 %mul.i.i.i12, 73
  %div1.i.i.i14 = lshr i32 %add.i.i.i13, 6
  %narrow38 = add nuw nsw i32 %div1.i.i.i14, 1
  %5 = zext nneg i32 %narrow38 to i64
  br label %_ZN6google8protobuf8internal14WireFormatLite9Int32SizeEi.exit17

_ZN6google8protobuf8internal14WireFormatLite9Int32SizeEi.exit17: ; preds = %if.then7, %if.else.i.i9
  %retval.0.i.i16 = phi i64 [ %5, %if.else.i.i9 ], [ 11, %if.then7 ]
  %add11 = add nuw nsw i64 %retval.0.i.i16, %total_size.0
  br label %if.end12

if.end12:                                         ; preds = %_ZN6google8protobuf8internal14WireFormatLite9Int32SizeEi.exit17, %if.end
  %total_size.1 = phi i64 [ %add11, %_ZN6google8protobuf8internal14WireFormatLite9Int32SizeEi.exit17 ], [ %total_size.0, %if.end ]
  %width_.i.i = getelementptr inbounds i8, ptr %this, i64 24
  %6 = load i32, ptr %width_.i.i, align 8
  %cmp14.not = icmp eq i32 %6, 0
  br i1 %cmp14.not, label %if.end20, label %if.then15

if.then15:                                        ; preds = %if.end12
  %cmp.i.i18 = icmp slt i32 %6, 0
  br i1 %cmp.i.i18, label %_ZN6google8protobuf8internal14WireFormatLite9Int32SizeEi.exit27, label %if.else.i.i19

if.else.i.i19:                                    ; preds = %if.then15
  %or.i.i.i20 = or i32 %6, 1
  %7 = tail call i32 @llvm.ctlz.i32(i32 %or.i.i.i20, i1 true), !range !9
  %xor.i.i.i.i21 = xor i32 %7, 31
  %mul.i.i.i22 = mul nuw nsw i32 %xor.i.i.i.i21, 9
  %add.i.i.i23 = add nuw nsw i32 %mul.i.i.i22, 73
  %div1.i.i.i24 = lshr i32 %add.i.i.i23, 6
  %narrow39 = add nuw nsw i32 %div1.i.i.i24, 1
  %8 = zext nneg i32 %narrow39 to i64
  br label %_ZN6google8protobuf8internal14WireFormatLite9Int32SizeEi.exit27

_ZN6google8protobuf8internal14WireFormatLite9Int32SizeEi.exit27: ; preds = %if.then15, %if.else.i.i19
  %retval.0.i.i26 = phi i64 [ %8, %if.else.i.i19 ], [ 11, %if.then15 ]
  %add19 = add nuw nsw i64 %retval.0.i.i26, %total_size.1
  br label %if.end20

if.end20:                                         ; preds = %_ZN6google8protobuf8internal14WireFormatLite9Int32SizeEi.exit27, %if.end12
  %total_size.2 = phi i64 [ %add19, %_ZN6google8protobuf8internal14WireFormatLite9Int32SizeEi.exit27 ], [ %total_size.1, %if.end12 ]
  %height_.i.i = getelementptr inbounds i8, ptr %this, i64 28
  %9 = load i32, ptr %height_.i.i, align 4
  %cmp22.not = icmp eq i32 %9, 0
  br i1 %cmp22.not, label %if.end28, label %if.then23

if.then23:                                        ; preds = %if.end20
  %cmp.i.i28 = icmp slt i32 %9, 0
  br i1 %cmp.i.i28, label %_ZN6google8protobuf8internal14WireFormatLite9Int32SizeEi.exit37, label %if.else.i.i29

if.else.i.i29:                                    ; preds = %if.then23
  %or.i.i.i30 = or i32 %9, 1
  %10 = tail call i32 @llvm.ctlz.i32(i32 %or.i.i.i30, i1 true), !range !9
  %xor.i.i.i.i31 = xor i32 %10, 31
  %mul.i.i.i32 = mul nuw nsw i32 %xor.i.i.i.i31, 9
  %add.i.i.i33 = add nuw nsw i32 %mul.i.i.i32, 73
  %div1.i.i.i34 = lshr i32 %add.i.i.i33, 6
  %narrow40 = add nuw nsw i32 %div1.i.i.i34, 1
  %11 = zext nneg i32 %narrow40 to i64
  br label %_ZN6google8protobuf8internal14WireFormatLite9Int32SizeEi.exit37

_ZN6google8protobuf8internal14WireFormatLite9Int32SizeEi.exit37: ; preds = %if.then23, %if.else.i.i29
  %retval.0.i.i36 = phi i64 [ %11, %if.else.i.i29 ], [ 11, %if.then23 ]
  %add27 = add nuw nsw i64 %retval.0.i.i36, %total_size.2
  br label %if.end28

if.end28:                                         ; preds = %_ZN6google8protobuf8internal14WireFormatLite9Int32SizeEi.exit37, %if.end20
  %total_size.3 = phi i64 [ %add27, %_ZN6google8protobuf8internal14WireFormatLite9Int32SizeEi.exit37 ], [ %total_size.2, %if.end20 ]
  %_internal_metadata_ = getelementptr inbounds i8, ptr %this, i64 8
  %12 = load ptr, ptr %_internal_metadata_, align 8
  %13 = ptrtoint ptr %12 to i64
  %conv.i7 = and i64 %13, 1
  %cmp.i.not = icmp eq i64 %conv.i7, 0
  br i1 %cmp.i.not, label %if.end33, label %if.then30

if.then30:                                        ; preds = %if.end28
  %_cached_size_ = getelementptr inbounds i8, ptr %this, i64 32
  %call32 = tail call noundef i64 @_ZN6google8protobuf8internal24ComputeUnknownFieldsSizeERKNS1_16InternalMetadataEmPNS1_10CachedSizeE(ptr noundef nonnull align 8 dereferenceable(8) %_internal_metadata_, i64 noundef %total_size.3, ptr noundef nonnull %_cached_size_)
  br label %return

if.end33:                                         ; preds = %if.end28
  %conv.i = trunc i64 %total_size.3 to i32
  %_cached_size_.i = getelementptr inbounds i8, ptr %this, i64 32
  store atomic i32 %conv.i, ptr %_cached_size_.i monotonic, align 8
  br label %return

return:                                           ; preds = %if.end33, %if.then30
  %retval.0 = phi i64 [ %call32, %if.then30 ], [ %total_size.3, %if.end33 ]
  ret i64 %retval.0
}